target datalayout = "e-m:e-p270:32:32-p271:32:32-p272:64:64-i64:64-i128:128-f80:128-n8:16:32:64-S128"
target triple = "x86_64-pc-linux-gnu"

%"struct.faiss::ClusteringParameters" = type { i32, i32, i8, i8, i8, i8, i8, i32, i32, i32, i64 }
%"class.std::vector" = type { %"struct.std::_Vector_base" }
%"struct.std::_Vector_base" = type { %"struct.std::_Vector_base<float, std::allocator<float>>::_Vector_impl" }
%"struct.std::_Vector_base<float, std::allocator<float>>::_Vector_impl" = type { %"struct.std::_Vector_base<float, std::allocator<float>>::_Vector_impl_data" }
%"struct.std::_Vector_base<float, std::allocator<float>>::_Vector_impl_data" = type { ptr, ptr, ptr }
%"struct.faiss::ProductQuantizer" = type { %"struct.faiss::Quantizer", i64, i64, i64, i64, i8, i32, %"struct.faiss::ClusteringParameters", ptr, %"class.std::vector", %"class.std::vector", %"class.std::vector", %"class.std::vector" }
%"struct.faiss::Quantizer" = type { ptr, i64, i64 }
%"struct.faiss::PQEncoderGeneric" = type <{ ptr, i8, [3 x i8], i32, i8, [7 x i8] }>

; Function Attrs: mustprogress nounwind uwtable
define linkonce_odr void @_ZN5faiss16PQEncoderGenericD2Ev(ptr noundef nonnull align 8 dereferenceable(17) %0) unnamed_addr #1 comdat align 2 {
  %2 = alloca ptr, align 8
  store ptr %0, ptr %2, align 8
  %3 = load ptr, ptr %2, align 8
  %4 = getelementptr inbounds %"struct.faiss::PQEncoderGeneric", ptr %3, i32 0, i32 1
  %5 = load i8, ptr %4, align 8
  %6 = zext i8 %5 to i32
  %7 = icmp sgt i32 %6, 0
  br i1 %7, label %8, label %13

8:                                                ; preds = %1
  %9 = getelementptr inbounds %"struct.faiss::PQEncoderGeneric", ptr %3, i32 0, i32 4
  %10 = load i8, ptr %9, align 8
  %11 = getelementptr inbounds %"struct.faiss::PQEncoderGeneric", ptr %3, i32 0, i32 0
  %12 = load ptr, ptr %11, align 8
  store i8 %10, ptr %12, align 1
  br label %13

13:                                               ; preds = %8, %1
  ret void
}

; Function Attrs: mustprogress nounwind uwtable
define linkonce_odr void @_ZN5faiss16PQEncoderGeneric6encodeEm(ptr noundef nonnull align 8 dereferenceable(17) %0, i64 noundef %1) #1 comdat align 2 {
  %3 = alloca ptr, align 8
  %4 = alloca i64, align 8
  %5 = alloca i32, align 4
  store ptr %0, ptr %3, align 8
  store i64 %1, ptr %4, align 8
  %6 = load ptr, ptr %3, align 8
  %7 = load i64, ptr %4, align 8
  %8 = getelementptr inbounds %"struct.faiss::PQEncoderGeneric", ptr %6, i32 0, i32 1
  %9 = load i8, ptr %8, align 8
  %10 = zext i8 %9 to i32
  %11 = zext i32 %10 to i64
  %12 = shl i64 %7, %11
  %13 = trunc i64 %12 to i8
  %14 = zext i8 %13 to i32
  %15 = getelementptr inbounds %"struct.faiss::PQEncoderGeneric", ptr %6, i32 0, i32 4
  %16 = load i8, ptr %15, align 8
  %17 = zext i8 %16 to i32
  %18 = or i32 %17, %14
  %19 = trunc i32 %18 to i8
  store i8 %19, ptr %15, align 8
  %20 = getelementptr inbounds %"struct.faiss::PQEncoderGeneric", ptr %6, i32 0, i32 1
  %21 = load i8, ptr %20, align 8
  %22 = zext i8 %21 to i32
  %23 = sub nsw i32 8, %22
  %24 = load i64, ptr %4, align 8
  %25 = zext i32 %23 to i64
  %26 = lshr i64 %24, %25
  store i64 %26, ptr %4, align 8
  %27 = getelementptr inbounds %"struct.faiss::PQEncoderGeneric", ptr %6, i32 0, i32 1
  %28 = load i8, ptr %27, align 8
  %29 = zext i8 %28 to i32
  %30 = getelementptr inbounds %"struct.faiss::PQEncoderGeneric", ptr %6, i32 0, i32 3
  %31 = load i32, ptr %30, align 4
  %32 = add nsw i32 %29, %31
  %33 = icmp sge i32 %32, 8
  br i1 %33, label %34, label %78

34:                                               ; preds = %2
  %35 = getelementptr inbounds %"struct.faiss::PQEncoderGeneric", ptr %6, i32 0, i32 4
  %36 = load i8, ptr %35, align 8
  %37 = getelementptr inbounds %"struct.faiss::PQEncoderGeneric", ptr %6, i32 0, i32 0
  %38 = load ptr, ptr %37, align 8
  %39 = getelementptr inbounds i8, ptr %38, i32 1
  store ptr %39, ptr %37, align 8
  store i8 %36, ptr %38, align 1
  store i32 0, ptr %5, align 4
  br label %40

40:                                               ; preds = %59, %34
  %41 = load i32, ptr %5, align 4
  %42 = getelementptr inbounds %"struct.faiss::PQEncoderGeneric", ptr %6, i32 0, i32 3
  %43 = load i32, ptr %42, align 4
  %44 = getelementptr inbounds %"struct.faiss::PQEncoderGeneric", ptr %6, i32 0, i32 1
  %45 = load i8, ptr %44, align 8
  %46 = zext i8 %45 to i32
  %47 = sub nsw i32 8, %46
  %48 = sub nsw i32 %43, %47
  %49 = sdiv i32 %48, 8
  %50 = icmp slt i32 %41, %49
  br i1 %50, label %51, label %62

51:                                               ; preds = %40
  %52 = load i64, ptr %4, align 8
  %53 = trunc i64 %52 to i8
  %54 = getelementptr inbounds %"struct.faiss::PQEncoderGeneric", ptr %6, i32 0, i32 0
  %55 = load ptr, ptr %54, align 8
  %56 = getelementptr inbounds i8, ptr %55, i32 1
  store ptr %56, ptr %54, align 8
  store i8 %53, ptr %55, align 1
  %57 = load i64, ptr %4, align 8
  %58 = lshr i64 %57, 8
  store i64 %58, ptr %4, align 8
  br label %59

59:                                               ; preds = %51
  %60 = load i32, ptr %5, align 4
  %61 = add nsw i32 %60, 1
  store i32 %61, ptr %5, align 4
  br label %40, !llvm.loop !23

62:                                               ; preds = %40
  %63 = getelementptr inbounds %"struct.faiss::PQEncoderGeneric", ptr %6, i32 0, i32 3
  %64 = load i32, ptr %63, align 4
  %65 = getelementptr inbounds %"struct.faiss::PQEncoderGeneric", ptr %6, i32 0, i32 1
  %66 = load i8, ptr %65, align 8
  %67 = zext i8 %66 to i32
  %68 = add nsw i32 %67, %64
  %69 = trunc i32 %68 to i8
  store i8 %69, ptr %65, align 8
  %70 = getelementptr inbounds %"struct.faiss::PQEncoderGeneric", ptr %6, i32 0, i32 1
  %71 = load i8, ptr %70, align 8
  %72 = zext i8 %71 to i32
  %73 = and i32 %72, 7
  %74 = trunc i32 %73 to i8
  store i8 %74, ptr %70, align 8
  %75 = load i64, ptr %4, align 8
  %76 = trunc i64 %75 to i8
  %77 = getelementptr inbounds %"struct.faiss::PQEncoderGeneric", ptr %6, i32 0, i32 4
  store i8 %76, ptr %77, align 8
  br label %86

78:                                               ; preds = %2
  %79 = getelementptr inbounds %"struct.faiss::PQEncoderGeneric", ptr %6, i32 0, i32 3
  %80 = load i32, ptr %79, align 4
  %81 = getelementptr inbounds %"struct.faiss::PQEncoderGeneric", ptr %6, i32 0, i32 1
  %82 = load i8, ptr %81, align 8
  %83 = zext i8 %82 to i32
  %84 = add nsw i32 %83, %80
  %85 = trunc i32 %84 to i8
  store i8 %85, ptr %81, align 8
  br label %86

86:                                               ; preds = %78, %62
  ret void
}

; Function Attrs: mustprogress nounwind uwtable
define linkonce_odr void @_ZN5faiss16PQEncoderGenericC2EPhih(ptr noundef nonnull align 8 dereferenceable(17) %0, ptr noundef %1, i32 noundef %2, i8 noundef zeroext %3) unnamed_addr #1 comdat align 2 {
  %5 = alloca ptr, align 8
  %6 = alloca ptr, align 8
  %7 = alloca i32, align 4
  %8 = alloca i8, align 1
  store ptr %0, ptr %5, align 8
  store ptr %1, ptr %6, align 8
  store i32 %2, ptr %7, align 4
  store i8 %3, ptr %8, align 1
  %9 = load ptr, ptr %5, align 8
  %10 = getelementptr inbounds %"struct.faiss::PQEncoderGeneric", ptr %9, i32 0, i32 0
  %11 = load ptr, ptr %6, align 8
  store ptr %11, ptr %10, align 8
  %12 = getelementptr inbounds %"struct.faiss::PQEncoderGeneric", ptr %9, i32 0, i32 1
  %13 = load i8, ptr %8, align 1
  store i8 %13, ptr %12, align 8
  %14 = getelementptr inbounds %"struct.faiss::PQEncoderGeneric", ptr %9, i32 0, i32 3
  %15 = load i32, ptr %7, align 4
  store i32 %15, ptr %14, align 4
  %16 = getelementptr inbounds %"struct.faiss::PQEncoderGeneric", ptr %9, i32 0, i32 4
  store i8 0, ptr %16, align 8
  %17 = load i8, ptr %8, align 1
  %18 = zext i8 %17 to i32
  %19 = icmp sgt i32 %18, 0
  br i1 %19, label %20, label %31

20:                                               ; preds = %4
  %21 = load ptr, ptr %6, align 8
  %22 = load i8, ptr %21, align 1
  %23 = zext i8 %22 to i32
  %24 = load i8, ptr %8, align 1
  %25 = zext i8 %24 to i32
  %26 = shl i32 1, %25
  %27 = sub nsw i32 %26, 1
  %28 = and i32 %23, %27
  %29 = trunc i32 %28 to i8
  %30 = getelementptr inbounds %"struct.faiss::PQEncoderGeneric", ptr %9, i32 0, i32 4
  store i8 %29, ptr %30, align 8
  br label %31

31:                                               ; preds = %20, %4
  ret void
}

; Function Attrs: mustprogress uwtable
define void @_ZNK5faiss16ProductQuantizer32compute_code_from_distance_tableEPKfPh(ptr noundef nonnull align 8 dereferenceable(208) %0, ptr noundef %1, ptr noundef %2) #0 align 2 {
  %4 = alloca ptr, align 8
  %5 = alloca ptr, align 8
  %6 = alloca ptr, align 8
  %7 = alloca %"struct.faiss::PQEncoderGeneric", align 8
  %8 = alloca i64, align 8
  %9 = alloca float, align 4
  %10 = alloca i64, align 8
  %11 = alloca i64, align 8
  %12 = alloca float, align 4
  store ptr %0, ptr %4, align 8
  store ptr %1, ptr %5, align 8
  store ptr %2, ptr %6, align 8
  %13 = load ptr, ptr %4, align 8
  %14 = load ptr, ptr %6, align 8
  %15 = getelementptr inbounds %"struct.faiss::ProductQuantizer", ptr %13, i32 0, i32 2
  %16 = load i64, ptr %15, align 8
  %17 = trunc i64 %16 to i32
  call void @_ZN5faiss16PQEncoderGenericC2EPhih(ptr noundef nonnull align 8 dereferenceable(17) %7, ptr noundef %14, i32 noundef %17, i8 noundef zeroext 0)
  store i64 0, ptr %8, align 8
  br label %18

18:                                               ; preds = %45, %3
  %19 = load i64, ptr %8, align 8
  %20 = getelementptr inbounds %"struct.faiss::ProductQuantizer", ptr %13, i32 0, i32 1
  %21 = load i64, ptr %20, align 8
  %22 = icmp ult i64 %19, %21
  br i1 %22, label %23, label %48

23:                                               ; preds = %18
  store float 0x4415AF1D80000000, ptr %9, align 4
  store i64 0, ptr %10, align 8
  store i64 0, ptr %11, align 8
  br label %24

24:                                               ; preds = %40, %23
  %25 = load i64, ptr %11, align 8
  %26 = getelementptr inbounds %"struct.faiss::ProductQuantizer", ptr %13, i32 0, i32 4
  %27 = load i64, ptr %26, align 8
  %28 = icmp ult i64 %25, %27
  br i1 %28, label %29, label %43

29:                                               ; preds = %24
  %30 = load ptr, ptr %5, align 8
  %31 = getelementptr inbounds float, ptr %30, i32 1
  store ptr %31, ptr %5, align 8
  %32 = load float, ptr %30, align 4
  store float %32, ptr %12, align 4
  %33 = load float, ptr %12, align 4
  %34 = load float, ptr %9, align 4
  %35 = fcmp olt float %33, %34
  br i1 %35, label %36, label %39

36:                                               ; preds = %29
  %37 = load float, ptr %12, align 4
  store float %37, ptr %9, align 4
  %38 = load i64, ptr %11, align 8
  store i64 %38, ptr %10, align 8
  br label %39

39:                                               ; preds = %36, %29
  br label %40

40:                                               ; preds = %39
  %41 = load i64, ptr %11, align 8
  %42 = add i64 %41, 1
  store i64 %42, ptr %11, align 8
  br label %24, !llvm.loop !30

43:                                               ; preds = %24
  %44 = load i64, ptr %10, align 8
  call void @_ZN5faiss16PQEncoderGeneric6encodeEm(ptr noundef nonnull align 8 dereferenceable(17) %7, i64 noundef %44)
  br label %45

45:                                               ; preds = %43
  %46 = load i64, ptr %8, align 8
  %47 = add i64 %46, 1
  store i64 %47, ptr %8, align 8
  br label %18, !llvm.loop !31

48:                                               ; preds = %18
  call void @_ZN5faiss16PQEncoderGenericD2Ev(ptr noundef nonnull align 8 dereferenceable(17) %7) #12
  ret void
}