; Function Attrs: mustprogress nofree norecurse nosync nounwind memory(readwrite, inaccessiblemem: none) uwtable
define void @_ZNK5faiss16ProductQuantizer32compute_code_from_distance_tableEPKfPh(ptr nocapture noundef nonnull readonly align 8 dereferenceable(208) %0, ptr nocapture noundef readonly %1, ptr nocapture noundef writeonly %2) local_unnamed_addr #14 align 2 {
  %4 = getelementptr inbounds i8, ptr %0, i64 32
  %5 = load i64, ptr %4, align 8
  %6 = trunc i64 %5 to i32
  %7 = getelementptr inbounds i8, ptr %0, i64 24
  %8 = load i64, ptr %7, align 8
  %.not = icmp eq i64 %8, 0
  br i1 %.not, label %_ZN5faiss16PQEncoderGenericD2Ev.exit, label %.preheader.lr.ph

.preheader.lr.ph:                                 ; preds = %3
  %9 = getelementptr inbounds i8, ptr %0, i64 48
  %.neg10.i = add i32 %6, -8
  %10 = trunc i64 %5 to i8
  br label %.preheader

.preheader:                                       ; preds = %.preheader.lr.ph, %_ZN5faiss16PQEncoderGeneric6encodeEm.exit
  %11 = phi i64 [ %8, %.preheader.lr.ph ], [ %42, %_ZN5faiss16PQEncoderGeneric6encodeEm.exit ]
  %.036 = phi ptr [ %1, %.preheader.lr.ph ], [ %.1.lcssa, %_ZN5faiss16PQEncoderGeneric6encodeEm.exit ]
  %.01635 = phi i64 [ 0, %.preheader.lr.ph ], [ %43, %_ZN5faiss16PQEncoderGeneric6encodeEm.exit ]
  %.sroa.0.034 = phi ptr [ %2, %.preheader.lr.ph ], [ %.sroa.0.3, %_ZN5faiss16PQEncoderGeneric6encodeEm.exit ]
  %.sroa.6.033 = phi i8 [ 0, %.preheader.lr.ph ], [ %.sroa.6.1, %_ZN5faiss16PQEncoderGeneric6encodeEm.exit ]
  %.sroa.17.032 = phi i8 [ 0, %.preheader.lr.ph ], [ %.sroa.17.1, %_ZN5faiss16PQEncoderGeneric6encodeEm.exit ]
  %12 = load i64, ptr %9, align 8
  %.not41 = icmp eq i64 %12, 0
  br i1 %.not41, label %._crit_edge, label %.lr.ph.preheader

.lr.ph.preheader:                                 ; preds = %.preheader
  %13 = shl i64 %12, 2
  br label %.lr.ph

.lr.ph:                                           ; preds = %.lr.ph.preheader, %.lr.ph
  %.130 = phi ptr [ %14, %.lr.ph ], [ %.036, %.lr.ph.preheader ]
  %.01129 = phi i64 [ %17, %.lr.ph ], [ 0, %.lr.ph.preheader ]
  %.01228 = phi i64 [ %.113, %.lr.ph ], [ 0, %.lr.ph.preheader ]
  %.01427 = phi float [ %.115, %.lr.ph ], [ 0x4415AF1D80000000, %.lr.ph.preheader ]
  %14 = getelementptr inbounds i8, ptr %.130, i64 4
  %15 = load float, ptr %.130, align 4
  %16 = fcmp olt float %15, %.01427
  %.115 = select i1 %16, float %15, float %.01427
  %.113 = select i1 %16, i64 %.01129, i64 %.01228
  %17 = add nuw i64 %.01129, 1
  %exitcond.not = icmp eq i64 %17, %12
  br i1 %exitcond.not, label %._crit_edge.loopexit, label %.lr.ph, !llvm.loop !31

._crit_edge.loopexit:                             ; preds = %.lr.ph
  %scevgep = getelementptr i8, ptr %.036, i64 %13
  br label %._crit_edge

._crit_edge:                                      ; preds = %._crit_edge.loopexit, %.preheader
  %.012.lcssa = phi i64 [ 0, %.preheader ], [ %.113, %._crit_edge.loopexit ]
  %.1.lcssa = phi ptr [ %.036, %.preheader ], [ %scevgep, %._crit_edge.loopexit ]
  %18 = zext nneg i8 %.sroa.6.033 to i64
  %19 = shl i64 %.012.lcssa, %18
  %20 = trunc i64 %19 to i8
  %21 = or i8 %.sroa.17.032, %20
  %22 = zext i8 %.sroa.6.033 to i32
  %23 = add nsw i32 %22, %6
  %24 = icmp sgt i32 %23, 7
  br i1 %24, label %25, label %40

25:                                               ; preds = %._crit_edge
  %26 = sub nsw i32 8, %22
  %27 = zext nneg i32 %26 to i64
  %28 = lshr i64 %.012.lcssa, %27
  %29 = getelementptr inbounds i8, ptr %.sroa.0.034, i64 1
  store i8 %21, ptr %.sroa.0.034, align 1
  %30 = add i32 %.neg10.i, %22
  %31 = icmp sgt i32 %30, 7
  br i1 %31, label %.lr.ph.i.preheader, label %._crit_edge.i

.lr.ph.i.preheader:                               ; preds = %25
  %32 = lshr i32 %30, 3
  br label %.lr.ph.i

.lr.ph.i:                                         ; preds = %.lr.ph.i.preheader, %.lr.ph.i
  %.sroa.0.1 = phi ptr [ %34, %.lr.ph.i ], [ %29, %.lr.ph.i.preheader ]
  %.012.i = phi i32 [ %36, %.lr.ph.i ], [ 0, %.lr.ph.i.preheader ]
  %.0711.i = phi i64 [ %35, %.lr.ph.i ], [ %28, %.lr.ph.i.preheader ]
  %33 = trunc i64 %.0711.i to i8
  %34 = getelementptr inbounds i8, ptr %.sroa.0.1, i64 1
  store i8 %33, ptr %.sroa.0.1, align 1
  %35 = lshr i64 %.0711.i, 8
  %36 = add nuw nsw i32 %.012.i, 1
  %exitcond44.not = icmp eq i32 %36, %32
  br i1 %exitcond44.not, label %._crit_edge.i, label %.lr.ph.i, !llvm.loop !23

._crit_edge.i:                                    ; preds = %.lr.ph.i, %25
  %.sroa.0.2 = phi ptr [ %29, %25 ], [ %34, %.lr.ph.i ]
  %.07.lcssa.i = phi i64 [ %28, %25 ], [ %35, %.lr.ph.i ]
  %37 = add i8 %.sroa.6.033, %10
  %38 = and i8 %37, 7
  %39 = trunc i64 %.07.lcssa.i to i8
  %.pre = load i64, ptr %7, align 8
  br label %_ZN5faiss16PQEncoderGeneric6encodeEm.exit

40:                                               ; preds = %._crit_edge
  %41 = trunc i32 %23 to i8
  br label %_ZN5faiss16PQEncoderGeneric6encodeEm.exit

_ZN5faiss16PQEncoderGeneric6encodeEm.exit:        ; preds = %._crit_edge.i, %40
  %42 = phi i64 [ %.pre, %._crit_edge.i ], [ %11, %40 ]
  %.sroa.17.1 = phi i8 [ %39, %._crit_edge.i ], [ %21, %40 ]
  %.sroa.6.1 = phi i8 [ %38, %._crit_edge.i ], [ %41, %40 ]
  %.sroa.0.3 = phi ptr [ %.sroa.0.2, %._crit_edge.i ], [ %.sroa.0.034, %40 ]
  %43 = add nuw i64 %.01635, 1
  %44 = icmp ult i64 %43, %42
  br i1 %44, label %.preheader, label %._crit_edge37, !llvm.loop !32

._crit_edge37:                                    ; preds = %_ZN5faiss16PQEncoderGeneric6encodeEm.exit
  %45 = icmp eq i8 %.sroa.6.1, 0
  br i1 %45, label %_ZN5faiss16PQEncoderGenericD2Ev.exit, label %46

46:                                               ; preds = %._crit_edge37
  store i8 %.sroa.17.1, ptr %.sroa.0.3, align 1
  br label %_ZN5faiss16PQEncoderGenericD2Ev.exit

_ZN5faiss16PQEncoderGenericD2Ev.exit:             ; preds = %3, %._crit_edge37, %46
  ret void
}